ARM GAS  C:\Users\samue\AppData\Local\Temp\ccQ3oqNz.s 			page 1


   1              		.cpu cortex-m4
   2              		.arch armv7e-m
   3              		.fpu fpv4-sp-d16
   4              		.eabi_attribute 27, 1
   5              		.eabi_attribute 28, 1
   6              		.eabi_attribute 20, 1
   7              		.eabi_attribute 21, 1
   8              		.eabi_attribute 23, 3
   9              		.eabi_attribute 24, 1
  10              		.eabi_attribute 25, 1
  11              		.eabi_attribute 26, 1
  12              		.eabi_attribute 30, 1
  13              		.eabi_attribute 34, 1
  14              		.eabi_attribute 18, 4
  15              		.file	"i2c_comm.c"
  16              		.text
  17              	.Ltext0:
  18              		.cfi_sections	.debug_frame
  19              		.section	.text.i2c1_init_master_mode,"ax",%progbits
  20              		.align	1
  21              		.global	i2c1_init_master_mode
  22              		.syntax unified
  23              		.thumb
  24              		.thumb_func
  26              	i2c1_init_master_mode:
  27              	.LFB130:
  28              		.file 1 "../STM32F4-driver-library/sources/i2c_comm.c"
   1:../STM32F4-driver-library/sources/i2c_comm.c **** /**
   2:../STM32F4-driver-library/sources/i2c_comm.c ****  * @file i2c_comm.c
   3:../STM32F4-driver-library/sources/i2c_comm.c ****  * 
   4:../STM32F4-driver-library/sources/i2c_comm.c ****  * @author Sam Donnelly (samueldonnelly11@gmail.com)
   5:../STM32F4-driver-library/sources/i2c_comm.c ****  * 
   6:../STM32F4-driver-library/sources/i2c_comm.c ****  * @brief 
   7:../STM32F4-driver-library/sources/i2c_comm.c ****  * 
   8:../STM32F4-driver-library/sources/i2c_comm.c ****  * @version 0.1
   9:../STM32F4-driver-library/sources/i2c_comm.c ****  * @date 2022-03-13
  10:../STM32F4-driver-library/sources/i2c_comm.c ****  * 
  11:../STM32F4-driver-library/sources/i2c_comm.c ****  * @copyright Copyright (c) 2022
  12:../STM32F4-driver-library/sources/i2c_comm.c ****  * 
  13:../STM32F4-driver-library/sources/i2c_comm.c ****  */
  14:../STM32F4-driver-library/sources/i2c_comm.c **** 
  15:../STM32F4-driver-library/sources/i2c_comm.c **** //=======================================================================================
  16:../STM32F4-driver-library/sources/i2c_comm.c **** // Includes 
  17:../STM32F4-driver-library/sources/i2c_comm.c **** 
  18:../STM32F4-driver-library/sources/i2c_comm.c **** #include "i2c_comm.h"
  19:../STM32F4-driver-library/sources/i2c_comm.c **** 
  20:../STM32F4-driver-library/sources/i2c_comm.c **** //=======================================================================================
  21:../STM32F4-driver-library/sources/i2c_comm.c **** 
  22:../STM32F4-driver-library/sources/i2c_comm.c **** 
  23:../STM32F4-driver-library/sources/i2c_comm.c **** //=======================================================================================
  24:../STM32F4-driver-library/sources/i2c_comm.c **** // Initiate I2C 
  25:../STM32F4-driver-library/sources/i2c_comm.c **** 
  26:../STM32F4-driver-library/sources/i2c_comm.c **** // TODO add the ability to customize the init with different frquencies. 
  27:../STM32F4-driver-library/sources/i2c_comm.c **** 
  28:../STM32F4-driver-library/sources/i2c_comm.c **** // Initialize I2C 1 in master mode 
  29:../STM32F4-driver-library/sources/i2c_comm.c **** void i2c1_init_master_mode(void)
  30:../STM32F4-driver-library/sources/i2c_comm.c **** {
ARM GAS  C:\Users\samue\AppData\Local\Temp\ccQ3oqNz.s 			page 2


  29              		.loc 1 30 1 view -0
  30              		.cfi_startproc
  31              		@ args = 0, pretend = 0, frame = 0
  32              		@ frame_needed = 0, uses_anonymous_args = 0
  33              		@ link register save eliminated.
  31:../STM32F4-driver-library/sources/i2c_comm.c ****     //==============================================================
  32:../STM32F4-driver-library/sources/i2c_comm.c ****     // I2C Mater Mode 
  33:../STM32F4-driver-library/sources/i2c_comm.c ****     //  1. Enable the I2C clock and the GPIO clock. 
  34:../STM32F4-driver-library/sources/i2c_comm.c ****     //  2. Configure the I2C pins for alternative functions. 
  35:../STM32F4-driver-library/sources/i2c_comm.c ****     //      a) Select alternate function in MODER register. 
  36:../STM32F4-driver-library/sources/i2c_comm.c ****     //      b) Select Open Drain Output. 
  37:../STM32F4-driver-library/sources/i2c_comm.c ****     //      c) Select High SPEED for the PINs 
  38:../STM32F4-driver-library/sources/i2c_comm.c ****     //      d) Select Pill-up for both the Pins 
  39:../STM32F4-driver-library/sources/i2c_comm.c ****     //      e) Configure the Alternate Function in AFR Register. 
  40:../STM32F4-driver-library/sources/i2c_comm.c ****     //  3. Reset the I2C. 
  41:../STM32F4-driver-library/sources/i2c_comm.c ****     //  4. Ensure PE is disabled before setting up the I2C
  42:../STM32F4-driver-library/sources/i2c_comm.c ****     //  5. Program the peripheral input clock in I2C_CR2 register
  43:../STM32F4-driver-library/sources/i2c_comm.c ****     //  6. Configure the clock control register 
  44:../STM32F4-driver-library/sources/i2c_comm.c ****     //      a) Set to fast mode (Fm)
  45:../STM32F4-driver-library/sources/i2c_comm.c ****     //      b) Set Fm mode duty cycle to 16/9
  46:../STM32F4-driver-library/sources/i2c_comm.c ****     //      c) Set the clock control register (CCR) - master mode
  47:../STM32F4-driver-library/sources/i2c_comm.c ****     //  7. Configure the rise time register 
  48:../STM32F4-driver-library/sources/i2c_comm.c ****     //  8. Program the I2C_CR1 register to enable the peripheral 
  49:../STM32F4-driver-library/sources/i2c_comm.c ****     //  9. Set the START but in the I2C_CR1 register to generate a 
  50:../STM32F4-driver-library/sources/i2c_comm.c ****     //     Start condition 
  51:../STM32F4-driver-library/sources/i2c_comm.c ****     //==============================================================
  52:../STM32F4-driver-library/sources/i2c_comm.c **** 
  53:../STM32F4-driver-library/sources/i2c_comm.c ****     // 1. Enable the I2C clock and the GPIO clock. 
  54:../STM32F4-driver-library/sources/i2c_comm.c **** 
  55:../STM32F4-driver-library/sources/i2c_comm.c ****     // Enable I2C clock - RCC_APB1ENR register, bit 21
  56:../STM32F4-driver-library/sources/i2c_comm.c ****     RCC->APB1ENR |= (SET_BIT << SHIFT_21);
  34              		.loc 1 56 5 view .LVU1
  35              		.loc 1 56 18 is_stmt 0 view .LVU2
  36 0000 2B4B     		ldr	r3, .L2
  37 0002 1A6C     		ldr	r2, [r3, #64]
  38 0004 42F40012 		orr	r2, r2, #2097152
  39 0008 1A64     		str	r2, [r3, #64]
  57:../STM32F4-driver-library/sources/i2c_comm.c **** 
  58:../STM32F4-driver-library/sources/i2c_comm.c ****     // Enable GPIOB clock - RCC_AHB1ENR register, bit 1
  59:../STM32F4-driver-library/sources/i2c_comm.c ****     RCC->AHB1ENR |= (SET_BIT << SHIFT_1);
  40              		.loc 1 59 5 is_stmt 1 view .LVU3
  41              		.loc 1 59 18 is_stmt 0 view .LVU4
  42 000a 1A6B     		ldr	r2, [r3, #48]
  43 000c 42F00202 		orr	r2, r2, #2
  44 0010 1A63     		str	r2, [r3, #48]
  60:../STM32F4-driver-library/sources/i2c_comm.c **** 
  61:../STM32F4-driver-library/sources/i2c_comm.c **** 
  62:../STM32F4-driver-library/sources/i2c_comm.c ****     // 2. Configure the I2C pins for alternative functions.
  63:../STM32F4-driver-library/sources/i2c_comm.c **** 
  64:../STM32F4-driver-library/sources/i2c_comm.c ****     // a) Select alternate function in MODER register. 
  65:../STM32F4-driver-library/sources/i2c_comm.c ****     GPIOB->MODER |= (SET_2 << SHIFT_16);      // pin PB8
  45              		.loc 1 65 5 is_stmt 1 view .LVU5
  46              		.loc 1 65 18 is_stmt 0 view .LVU6
  47 0012 A3F55053 		sub	r3, r3, #13312
  48 0016 1A68     		ldr	r2, [r3]
  49 0018 42F40032 		orr	r2, r2, #131072
  50 001c 1A60     		str	r2, [r3]
ARM GAS  C:\Users\samue\AppData\Local\Temp\ccQ3oqNz.s 			page 3


  66:../STM32F4-driver-library/sources/i2c_comm.c ****     GPIOB->MODER |= (SET_2 << SHIFT_18);      // pin PB9
  51              		.loc 1 66 5 is_stmt 1 view .LVU7
  52              		.loc 1 66 18 is_stmt 0 view .LVU8
  53 001e 1A68     		ldr	r2, [r3]
  54 0020 42F40022 		orr	r2, r2, #524288
  55 0024 1A60     		str	r2, [r3]
  67:../STM32F4-driver-library/sources/i2c_comm.c **** 
  68:../STM32F4-driver-library/sources/i2c_comm.c ****     // b) Select Open Drain Output - used for lines with multiple devices
  69:../STM32F4-driver-library/sources/i2c_comm.c ****     GPIOB->OTYPER |= (SET_BIT << SHIFT_8);    // pin PB8 
  56              		.loc 1 69 5 is_stmt 1 view .LVU9
  57              		.loc 1 69 19 is_stmt 0 view .LVU10
  58 0026 5A68     		ldr	r2, [r3, #4]
  59 0028 42F48072 		orr	r2, r2, #256
  60 002c 5A60     		str	r2, [r3, #4]
  70:../STM32F4-driver-library/sources/i2c_comm.c ****     GPIOB->OTYPER |= (SET_BIT << SHIFT_9);    // pin PB9
  61              		.loc 1 70 5 is_stmt 1 view .LVU11
  62              		.loc 1 70 19 is_stmt 0 view .LVU12
  63 002e 5A68     		ldr	r2, [r3, #4]
  64 0030 42F40072 		orr	r2, r2, #512
  65 0034 5A60     		str	r2, [r3, #4]
  71:../STM32F4-driver-library/sources/i2c_comm.c **** 
  72:../STM32F4-driver-library/sources/i2c_comm.c ****     // c) Select High SPEED for the PINs 
  73:../STM32F4-driver-library/sources/i2c_comm.c ****     GPIOB->OSPEEDR |= (SET_3 << SHIFT_16);    // pin PB8
  66              		.loc 1 73 5 is_stmt 1 view .LVU13
  67              		.loc 1 73 20 is_stmt 0 view .LVU14
  68 0036 9A68     		ldr	r2, [r3, #8]
  69 0038 42F44032 		orr	r2, r2, #196608
  70 003c 9A60     		str	r2, [r3, #8]
  74:../STM32F4-driver-library/sources/i2c_comm.c ****     GPIOB->OSPEEDR |= (SET_3 << SHIFT_18);    // pin PB9
  71              		.loc 1 74 5 is_stmt 1 view .LVU15
  72              		.loc 1 74 20 is_stmt 0 view .LVU16
  73 003e 9A68     		ldr	r2, [r3, #8]
  74 0040 42F44022 		orr	r2, r2, #786432
  75 0044 9A60     		str	r2, [r3, #8]
  75:../STM32F4-driver-library/sources/i2c_comm.c **** 
  76:../STM32F4-driver-library/sources/i2c_comm.c ****     // d) Select Pill-up for both the Pins 
  77:../STM32F4-driver-library/sources/i2c_comm.c ****     GPIOB->PUPDR |= (SET_BIT << SHIFT_16);    // pin PB8 
  76              		.loc 1 77 5 is_stmt 1 view .LVU17
  77              		.loc 1 77 18 is_stmt 0 view .LVU18
  78 0046 DA68     		ldr	r2, [r3, #12]
  79 0048 42F48032 		orr	r2, r2, #65536
  80 004c DA60     		str	r2, [r3, #12]
  78:../STM32F4-driver-library/sources/i2c_comm.c ****     GPIOB->PUPDR |= (SET_BIT << SHIFT_18);    // pin PB9
  81              		.loc 1 78 5 is_stmt 1 view .LVU19
  82              		.loc 1 78 18 is_stmt 0 view .LVU20
  83 004e DA68     		ldr	r2, [r3, #12]
  84 0050 42F48022 		orr	r2, r2, #262144
  85 0054 DA60     		str	r2, [r3, #12]
  79:../STM32F4-driver-library/sources/i2c_comm.c **** 
  80:../STM32F4-driver-library/sources/i2c_comm.c ****     // e) Configure the Alternate Function in AFR Register. 
  81:../STM32F4-driver-library/sources/i2c_comm.c ****     GPIOB->AFR[1] |= (SET_4 << SHIFT_0);      // pin PB8 
  86              		.loc 1 81 5 is_stmt 1 view .LVU21
  87              		.loc 1 81 19 is_stmt 0 view .LVU22
  88 0056 5A6A     		ldr	r2, [r3, #36]
  89 0058 42F00402 		orr	r2, r2, #4
  90 005c 5A62     		str	r2, [r3, #36]
  82:../STM32F4-driver-library/sources/i2c_comm.c ****     GPIOB->AFR[1] |= (SET_4 << SHIFT_4);      // pin PB9
ARM GAS  C:\Users\samue\AppData\Local\Temp\ccQ3oqNz.s 			page 4


  91              		.loc 1 82 5 is_stmt 1 view .LVU23
  92              		.loc 1 82 19 is_stmt 0 view .LVU24
  93 005e 5A6A     		ldr	r2, [r3, #36]
  94 0060 42F04002 		orr	r2, r2, #64
  95 0064 5A62     		str	r2, [r3, #36]
  83:../STM32F4-driver-library/sources/i2c_comm.c **** 
  84:../STM32F4-driver-library/sources/i2c_comm.c **** 
  85:../STM32F4-driver-library/sources/i2c_comm.c ****     // 3. Reset the I2C. 
  86:../STM32F4-driver-library/sources/i2c_comm.c ****     I2C1->CR1 |=  (SET_BIT << SHIFT_15);  // Enable reset bit 
  96              		.loc 1 86 5 is_stmt 1 view .LVU25
  97              		.loc 1 86 15 is_stmt 0 view .LVU26
  98 0066 A3F5D833 		sub	r3, r3, #110592
  99 006a 1A68     		ldr	r2, [r3]
 100 006c 42F40042 		orr	r2, r2, #32768
 101 0070 1A60     		str	r2, [r3]
  87:../STM32F4-driver-library/sources/i2c_comm.c ****     I2C1->CR1 &= ~(SET_BIT << SHIFT_15);  // Disable reset bit
 102              		.loc 1 87 5 is_stmt 1 view .LVU27
 103              		.loc 1 87 15 is_stmt 0 view .LVU28
 104 0072 1A68     		ldr	r2, [r3]
 105 0074 22F40042 		bic	r2, r2, #32768
 106 0078 1A60     		str	r2, [r3]
  88:../STM32F4-driver-library/sources/i2c_comm.c **** 
  89:../STM32F4-driver-library/sources/i2c_comm.c **** 
  90:../STM32F4-driver-library/sources/i2c_comm.c ****     // 4. Ensure PE is disabled before setting up the I2C
  91:../STM32F4-driver-library/sources/i2c_comm.c ****     I2C1->CR1 |= (CLEAR_BIT << SHIFT_0);
 107              		.loc 1 91 5 is_stmt 1 view .LVU29
 108              		.loc 1 91 15 is_stmt 0 view .LVU30
 109 007a 1A68     		ldr	r2, [r3]
 110 007c 1A60     		str	r2, [r3]
  92:../STM32F4-driver-library/sources/i2c_comm.c **** 
  93:../STM32F4-driver-library/sources/i2c_comm.c **** 
  94:../STM32F4-driver-library/sources/i2c_comm.c ****     // 5. Program the peripheral input clock in I2C_CR2 register
  95:../STM32F4-driver-library/sources/i2c_comm.c ****     I2C1->CR2 |= (I2C_APB1_42MHZ << SHIFT_0);
 111              		.loc 1 95 5 is_stmt 1 view .LVU31
 112              		.loc 1 95 15 is_stmt 0 view .LVU32
 113 007e 5A68     		ldr	r2, [r3, #4]
 114 0080 42F02A02 		orr	r2, r2, #42
 115 0084 5A60     		str	r2, [r3, #4]
  96:../STM32F4-driver-library/sources/i2c_comm.c **** 
  97:../STM32F4-driver-library/sources/i2c_comm.c **** 
  98:../STM32F4-driver-library/sources/i2c_comm.c ****     // 6. Configure the clock control register 
  99:../STM32F4-driver-library/sources/i2c_comm.c **** 
 100:../STM32F4-driver-library/sources/i2c_comm.c ****     // a) Set to fast mode (Fm)
 101:../STM32F4-driver-library/sources/i2c_comm.c ****     I2C1->CCR |= (SET_BIT << SHIFT_15);
 116              		.loc 1 101 5 is_stmt 1 view .LVU33
 117              		.loc 1 101 15 is_stmt 0 view .LVU34
 118 0086 DA69     		ldr	r2, [r3, #28]
 119 0088 42F40042 		orr	r2, r2, #32768
 120 008c DA61     		str	r2, [r3, #28]
 102:../STM32F4-driver-library/sources/i2c_comm.c **** 
 103:../STM32F4-driver-library/sources/i2c_comm.c ****     // b) Set Fm mode duty cycle to 16/9
 104:../STM32F4-driver-library/sources/i2c_comm.c ****     I2C1->CCR |= (SET_BIT << SHIFT_14);
 121              		.loc 1 104 5 is_stmt 1 view .LVU35
 122              		.loc 1 104 15 is_stmt 0 view .LVU36
 123 008e DA69     		ldr	r2, [r3, #28]
 124 0090 42F48042 		orr	r2, r2, #16384
 125 0094 DA61     		str	r2, [r3, #28]
ARM GAS  C:\Users\samue\AppData\Local\Temp\ccQ3oqNz.s 			page 5


 105:../STM32F4-driver-library/sources/i2c_comm.c **** 
 106:../STM32F4-driver-library/sources/i2c_comm.c ****     // c) Set the clock control register (CCR) - master mode
 107:../STM32F4-driver-library/sources/i2c_comm.c ****     I2C1->CCR |= (I2C_CCR_FM_169_42_400 << SHIFT_0);
 126              		.loc 1 107 5 is_stmt 1 view .LVU37
 127              		.loc 1 107 15 is_stmt 0 view .LVU38
 128 0096 DA69     		ldr	r2, [r3, #28]
 129 0098 42F00502 		orr	r2, r2, #5
 130 009c DA61     		str	r2, [r3, #28]
 108:../STM32F4-driver-library/sources/i2c_comm.c **** 
 109:../STM32F4-driver-library/sources/i2c_comm.c **** 
 110:../STM32F4-driver-library/sources/i2c_comm.c ****     // 7. Configure the rise time register
 111:../STM32F4-driver-library/sources/i2c_comm.c ****     I2C1->TRISE |= (I2C_TRISE_300_42 << SHIFT_0); 
 131              		.loc 1 111 5 is_stmt 1 view .LVU39
 132              		.loc 1 111 17 is_stmt 0 view .LVU40
 133 009e 1A6A     		ldr	r2, [r3, #32]
 134 00a0 42F00D02 		orr	r2, r2, #13
 135 00a4 1A62     		str	r2, [r3, #32]
 112:../STM32F4-driver-library/sources/i2c_comm.c **** 
 113:../STM32F4-driver-library/sources/i2c_comm.c **** 
 114:../STM32F4-driver-library/sources/i2c_comm.c ****     // 8. Program the I2C_CR1 register to enable the peripheral
 115:../STM32F4-driver-library/sources/i2c_comm.c ****     I2C1->CR1 |= (SET_BIT << SHIFT_0);
 136              		.loc 1 115 5 is_stmt 1 view .LVU41
 137              		.loc 1 115 15 is_stmt 0 view .LVU42
 138 00a6 1A68     		ldr	r2, [r3]
 139 00a8 42F00102 		orr	r2, r2, #1
 140 00ac 1A60     		str	r2, [r3]
 116:../STM32F4-driver-library/sources/i2c_comm.c **** }
 141              		.loc 1 116 1 view .LVU43
 142 00ae 7047     		bx	lr
 143              	.L3:
 144              		.align	2
 145              	.L2:
 146 00b0 00380240 		.word	1073887232
 147              		.cfi_endproc
 148              	.LFE130:
 150              		.section	.text.i2c1_init_slave_mode,"ax",%progbits
 151              		.align	1
 152              		.global	i2c1_init_slave_mode
 153              		.syntax unified
 154              		.thumb
 155              		.thumb_func
 157              	i2c1_init_slave_mode:
 158              	.LFB131:
 117:../STM32F4-driver-library/sources/i2c_comm.c **** 
 118:../STM32F4-driver-library/sources/i2c_comm.c **** 
 119:../STM32F4-driver-library/sources/i2c_comm.c **** // Initialize I2C 1 in slave mode 
 120:../STM32F4-driver-library/sources/i2c_comm.c **** void i2c1_init_slave_mode(void)
 121:../STM32F4-driver-library/sources/i2c_comm.c **** {
 159              		.loc 1 121 1 is_stmt 1 view -0
 160              		.cfi_startproc
 161              		@ args = 0, pretend = 0, frame = 0
 162              		@ frame_needed = 0, uses_anonymous_args = 0
 163              		@ link register save eliminated.
 122:../STM32F4-driver-library/sources/i2c_comm.c ****     // 
 123:../STM32F4-driver-library/sources/i2c_comm.c **** }
 164              		.loc 1 123 1 view .LVU45
 165 0000 7047     		bx	lr
ARM GAS  C:\Users\samue\AppData\Local\Temp\ccQ3oqNz.s 			page 6


 166              		.cfi_endproc
 167              	.LFE131:
 169              		.section	.text.i2c1_write,"ax",%progbits
 170              		.align	1
 171              		.global	i2c1_write
 172              		.syntax unified
 173              		.thumb
 174              		.thumb_func
 176              	i2c1_write:
 177              	.LFB132:
 124:../STM32F4-driver-library/sources/i2c_comm.c **** 
 125:../STM32F4-driver-library/sources/i2c_comm.c **** //=======================================================================================
 126:../STM32F4-driver-library/sources/i2c_comm.c **** 
 127:../STM32F4-driver-library/sources/i2c_comm.c **** 
 128:../STM32F4-driver-library/sources/i2c_comm.c **** //=======================================================================================
 129:../STM32F4-driver-library/sources/i2c_comm.c **** // Write I2C 
 130:../STM32F4-driver-library/sources/i2c_comm.c **** 
 131:../STM32F4-driver-library/sources/i2c_comm.c **** // Send data to a device using I2C 1 
 132:../STM32F4-driver-library/sources/i2c_comm.c **** void i2c1_write(void)
 133:../STM32F4-driver-library/sources/i2c_comm.c **** {
 178              		.loc 1 133 1 view -0
 179              		.cfi_startproc
 180              		@ args = 0, pretend = 0, frame = 0
 181              		@ frame_needed = 0, uses_anonymous_args = 0
 182              		@ link register save eliminated.
 134:../STM32F4-driver-library/sources/i2c_comm.c ****     // 
 135:../STM32F4-driver-library/sources/i2c_comm.c **** }
 183              		.loc 1 135 1 view .LVU47
 184 0000 7047     		bx	lr
 185              		.cfi_endproc
 186              	.LFE132:
 188              		.section	.text.i2c1_read,"ax",%progbits
 189              		.align	1
 190              		.global	i2c1_read
 191              		.syntax unified
 192              		.thumb
 193              		.thumb_func
 195              	i2c1_read:
 196              	.LFB133:
 136:../STM32F4-driver-library/sources/i2c_comm.c **** 
 137:../STM32F4-driver-library/sources/i2c_comm.c **** //=======================================================================================
 138:../STM32F4-driver-library/sources/i2c_comm.c **** 
 139:../STM32F4-driver-library/sources/i2c_comm.c **** 
 140:../STM32F4-driver-library/sources/i2c_comm.c **** //=======================================================================================
 141:../STM32F4-driver-library/sources/i2c_comm.c **** // Read I2C 
 142:../STM32F4-driver-library/sources/i2c_comm.c **** 
 143:../STM32F4-driver-library/sources/i2c_comm.c **** // Read data from a device using I2C 1 
 144:../STM32F4-driver-library/sources/i2c_comm.c **** void i2c1_read(void)
 145:../STM32F4-driver-library/sources/i2c_comm.c **** {
 197              		.loc 1 145 1 view -0
 198              		.cfi_startproc
 199              		@ args = 0, pretend = 0, frame = 0
 200              		@ frame_needed = 0, uses_anonymous_args = 0
 201              		@ link register save eliminated.
 146:../STM32F4-driver-library/sources/i2c_comm.c ****     // 
 147:../STM32F4-driver-library/sources/i2c_comm.c **** }
 202              		.loc 1 147 1 view .LVU49
ARM GAS  C:\Users\samue\AppData\Local\Temp\ccQ3oqNz.s 			page 7


 203 0000 7047     		bx	lr
 204              		.cfi_endproc
 205              	.LFE133:
 207              		.text
 208              	.Letext0:
 209              		.file 2 "c:\\dev_tools\\gcc-arm-none-eabi-10.3-2021.10-win32\\gcc-arm-none-eabi-10.3-2021.10\\arm-
 210              		.file 3 "c:\\dev_tools\\gcc-arm-none-eabi-10.3-2021.10-win32\\gcc-arm-none-eabi-10.3-2021.10\\arm-
 211              		.file 4 "Drivers/CMSIS/Device/ST/STM32F4xx/Include/stm32f411xe.h"
 212              		.file 5 "../STM32F4-driver-library/headers/tools.h"
 213              		.file 6 "../STM32F4-driver-library/headers/i2c_comm.h"
ARM GAS  C:\Users\samue\AppData\Local\Temp\ccQ3oqNz.s 			page 8

