ARM GAS  C:\Users\samue\AppData\Local\Temp\ccNHADWW.s 			page 1


   1              		.cpu cortex-m4
   2              		.arch armv7e-m
   3              		.fpu fpv4-sp-d16
   4              		.eabi_attribute 27, 1
   5              		.eabi_attribute 28, 1
   6              		.eabi_attribute 20, 1
   7              		.eabi_attribute 21, 1
   8              		.eabi_attribute 23, 3
   9              		.eabi_attribute 24, 1
  10              		.eabi_attribute 25, 1
  11              		.eabi_attribute 26, 1
  12              		.eabi_attribute 30, 1
  13              		.eabi_attribute 34, 1
  14              		.eabi_attribute 18, 4
  15              		.file	"uart_comm.c"
  16              		.text
  17              	.Ltext0:
  18              		.cfi_sections	.debug_frame
  19              		.section	.text.uart2_init,"ax",%progbits
  20              		.align	1
  21              		.global	uart2_init
  22              		.syntax unified
  23              		.thumb
  24              		.thumb_func
  26              	uart2_init:
  27              	.LFB130:
  28              		.file 1 "../STM32F4-driver-library/sources/uart_comm.c"
   1:../STM32F4-driver-library/sources/uart_comm.c **** /**
   2:../STM32F4-driver-library/sources/uart_comm.c ****  * @file uart_comm.c
   3:../STM32F4-driver-library/sources/uart_comm.c ****  * 
   4:../STM32F4-driver-library/sources/uart_comm.c ****  * @author Sam Donnelly (samueldonnelly11@gmail.com)
   5:../STM32F4-driver-library/sources/uart_comm.c ****  * 
   6:../STM32F4-driver-library/sources/uart_comm.c ****  * @brief Driver for UART communication 
   7:../STM32F4-driver-library/sources/uart_comm.c ****  * 
   8:../STM32F4-driver-library/sources/uart_comm.c ****  * @version 0.1
   9:../STM32F4-driver-library/sources/uart_comm.c ****  * @date 2022-02-12
  10:../STM32F4-driver-library/sources/uart_comm.c ****  * 
  11:../STM32F4-driver-library/sources/uart_comm.c ****  * @copyright Copyright (c) 2022
  12:../STM32F4-driver-library/sources/uart_comm.c ****  * 
  13:../STM32F4-driver-library/sources/uart_comm.c ****  */
  14:../STM32F4-driver-library/sources/uart_comm.c **** 
  15:../STM32F4-driver-library/sources/uart_comm.c **** //=======================================================================================
  16:../STM32F4-driver-library/sources/uart_comm.c **** // Includes 
  17:../STM32F4-driver-library/sources/uart_comm.c **** 
  18:../STM32F4-driver-library/sources/uart_comm.c **** #include "uart_comm.h"
  19:../STM32F4-driver-library/sources/uart_comm.c **** 
  20:../STM32F4-driver-library/sources/uart_comm.c **** //=======================================================================================
  21:../STM32F4-driver-library/sources/uart_comm.c **** 
  22:../STM32F4-driver-library/sources/uart_comm.c **** 
  23:../STM32F4-driver-library/sources/uart_comm.c **** // UART2 setup 
  24:../STM32F4-driver-library/sources/uart_comm.c **** void uart2_init(void)
  25:../STM32F4-driver-library/sources/uart_comm.c **** {
  29              		.loc 1 25 1 view -0
  30              		.cfi_startproc
  31              		@ args = 0, pretend = 0, frame = 0
  32              		@ frame_needed = 0, uses_anonymous_args = 0
  33              		@ link register save eliminated.
ARM GAS  C:\Users\samue\AppData\Local\Temp\ccNHADWW.s 			page 2


  26:../STM32F4-driver-library/sources/uart_comm.c ****     // Enable UART on pins PA2 and PA3 
  27:../STM32F4-driver-library/sources/uart_comm.c **** 
  28:../STM32F4-driver-library/sources/uart_comm.c ****     // Pin Setup 
  29:../STM32F4-driver-library/sources/uart_comm.c **** 
  30:../STM32F4-driver-library/sources/uart_comm.c ****     // Enable UART2 Clock - RCC_APB1 register, bit 17
  31:../STM32F4-driver-library/sources/uart_comm.c ****     RCC->APB1ENR |= (SET_BIT << SHIFT_17);
  34              		.loc 1 31 5 view .LVU1
  35              		.loc 1 31 18 is_stmt 0 view .LVU2
  36 0000 224B     		ldr	r3, .L2
  37 0002 1A6C     		ldr	r2, [r3, #64]
  38 0004 42F40032 		orr	r2, r2, #131072
  39 0008 1A64     		str	r2, [r3, #64]
  32:../STM32F4-driver-library/sources/uart_comm.c **** 
  33:../STM32F4-driver-library/sources/uart_comm.c ****     // Enable GPIOA clock for TX and RX pins - RCC_AHB! register, bit 0
  34:../STM32F4-driver-library/sources/uart_comm.c ****     RCC->AHB1ENR |= (SET_BIT << SHIFT_0);
  40              		.loc 1 34 5 is_stmt 1 view .LVU3
  41              		.loc 1 34 18 is_stmt 0 view .LVU4
  42 000a 1A6B     		ldr	r2, [r3, #48]
  43 000c 42F00102 		orr	r2, r2, #1
  44 0010 1A63     		str	r2, [r3, #48]
  35:../STM32F4-driver-library/sources/uart_comm.c **** 
  36:../STM32F4-driver-library/sources/uart_comm.c ****     // Configure the UART pins for alternative functions - GPIOA_MODER register 
  37:../STM32F4-driver-library/sources/uart_comm.c ****     GPIOA->MODER |= (SET_2 << SHIFT_4);   // pin PA2
  45              		.loc 1 37 5 is_stmt 1 view .LVU5
  46              		.loc 1 37 18 is_stmt 0 view .LVU6
  47 0012 A3F56053 		sub	r3, r3, #14336
  48 0016 1A68     		ldr	r2, [r3]
  49 0018 42F02002 		orr	r2, r2, #32
  50 001c 1A60     		str	r2, [r3]
  38:../STM32F4-driver-library/sources/uart_comm.c ****     GPIOA->MODER |= (SET_2 << SHIFT_6);   // pin PA3
  51              		.loc 1 38 5 is_stmt 1 view .LVU7
  52              		.loc 1 38 18 is_stmt 0 view .LVU8
  53 001e 1A68     		ldr	r2, [r3]
  54 0020 42F08002 		orr	r2, r2, #128
  55 0024 1A60     		str	r2, [r3]
  39:../STM32F4-driver-library/sources/uart_comm.c **** 
  40:../STM32F4-driver-library/sources/uart_comm.c ****     // Set output speed of GPIO pins to high speed - GPIOA_OSPEEDR register 
  41:../STM32F4-driver-library/sources/uart_comm.c ****     GPIOA->OSPEEDR |= (SET_3 << SHIFT_4);   // pin PA2
  56              		.loc 1 41 5 is_stmt 1 view .LVU9
  57              		.loc 1 41 20 is_stmt 0 view .LVU10
  58 0026 9A68     		ldr	r2, [r3, #8]
  59 0028 42F03002 		orr	r2, r2, #48
  60 002c 9A60     		str	r2, [r3, #8]
  42:../STM32F4-driver-library/sources/uart_comm.c ****     GPIOA->OSPEEDR |= (SET_3 << SHIFT_6);   // pin PA3
  61              		.loc 1 42 5 is_stmt 1 view .LVU11
  62              		.loc 1 42 20 is_stmt 0 view .LVU12
  63 002e 9A68     		ldr	r2, [r3, #8]
  64 0030 42F0C002 		orr	r2, r2, #192
  65 0034 9A60     		str	r2, [r3, #8]
  43:../STM32F4-driver-library/sources/uart_comm.c **** 
  44:../STM32F4-driver-library/sources/uart_comm.c ****     // Set the alternative function low ([0]) register for USART2 (AF7)
  45:../STM32F4-driver-library/sources/uart_comm.c ****     GPIOA->AFR[0] |= (SET_7 << SHIFT_8);    // pin PA2
  66              		.loc 1 45 5 is_stmt 1 view .LVU13
  67              		.loc 1 45 19 is_stmt 0 view .LVU14
  68 0036 1A6A     		ldr	r2, [r3, #32]
  69 0038 42F4E062 		orr	r2, r2, #1792
  70 003c 1A62     		str	r2, [r3, #32]
ARM GAS  C:\Users\samue\AppData\Local\Temp\ccNHADWW.s 			page 3


  46:../STM32F4-driver-library/sources/uart_comm.c ****     GPIOA->AFR[0] |= (SET_7 << SHIFT_12);   // pin PA3
  71              		.loc 1 46 5 is_stmt 1 view .LVU15
  72              		.loc 1 46 19 is_stmt 0 view .LVU16
  73 003e 1A6A     		ldr	r2, [r3, #32]
  74 0040 42F4E042 		orr	r2, r2, #28672
  75 0044 1A62     		str	r2, [r3, #32]
  47:../STM32F4-driver-library/sources/uart_comm.c **** 
  48:../STM32F4-driver-library/sources/uart_comm.c ****     // UART Configuration 
  49:../STM32F4-driver-library/sources/uart_comm.c **** 
  50:../STM32F4-driver-library/sources/uart_comm.c ****     // Clear the USART_CR1 register 
  51:../STM32F4-driver-library/sources/uart_comm.c ****     USART2->CR1 = CLEAR;
  76              		.loc 1 51 5 is_stmt 1 view .LVU17
  77              		.loc 1 51 17 is_stmt 0 view .LVU18
  78 0046 A3F5DE33 		sub	r3, r3, #113664
  79 004a 0022     		movs	r2, #0
  80 004c DA60     		str	r2, [r3, #12]
  52:../STM32F4-driver-library/sources/uart_comm.c **** 
  53:../STM32F4-driver-library/sources/uart_comm.c ****     // Write the UE bit in the USART_CR1 register to 1
  54:../STM32F4-driver-library/sources/uart_comm.c ****     USART2->CR1 |= (SET_BIT << SHIFT_13);
  81              		.loc 1 54 5 is_stmt 1 view .LVU19
  82              		.loc 1 54 17 is_stmt 0 view .LVU20
  83 004e DA68     		ldr	r2, [r3, #12]
  84 0050 42F40052 		orr	r2, r2, #8192
  85 0054 DA60     		str	r2, [r3, #12]
  55:../STM32F4-driver-library/sources/uart_comm.c **** 
  56:../STM32F4-driver-library/sources/uart_comm.c ****     // Program the M bit to define the word length
  57:../STM32F4-driver-library/sources/uart_comm.c ****     USART2->CR1 &= ~(SET_BIT << SHIFT_12);  //  Set to zero for 8 bit word length
  86              		.loc 1 57 5 is_stmt 1 view .LVU21
  87              		.loc 1 57 17 is_stmt 0 view .LVU22
  88 0056 DA68     		ldr	r2, [r3, #12]
  89 0058 22F48052 		bic	r2, r2, #4096
  90 005c DA60     		str	r2, [r3, #12]
  58:../STM32F4-driver-library/sources/uart_comm.c **** 
  59:../STM32F4-driver-library/sources/uart_comm.c ****     // Program the number of stop bits in the USART_CR2 register 
  60:../STM32F4-driver-library/sources/uart_comm.c ****     USART2->CR2 &= ~(SET_2 << SHIFT_12);  // Set to 0 for 1 stop bit 
  91              		.loc 1 60 5 is_stmt 1 view .LVU23
  92              		.loc 1 60 17 is_stmt 0 view .LVU24
  93 005e 1A69     		ldr	r2, [r3, #16]
  94 0060 22F40052 		bic	r2, r2, #8192
  95 0064 1A61     		str	r2, [r3, #16]
  61:../STM32F4-driver-library/sources/uart_comm.c **** 
  62:../STM32F4-driver-library/sources/uart_comm.c ****     // Set the baud rate 
  63:../STM32F4-driver-library/sources/uart_comm.c ****     USART2->BRR |= (USART_50MHZ_9600_FRAC << SHIFT_0);  // Fractional 
  96              		.loc 1 63 5 is_stmt 1 view .LVU25
  97              		.loc 1 63 17 is_stmt 0 view .LVU26
  98 0066 9A68     		ldr	r2, [r3, #8]
  99 0068 42F00802 		orr	r2, r2, #8
 100 006c 9A60     		str	r2, [r3, #8]
  64:../STM32F4-driver-library/sources/uart_comm.c ****     USART2->BRR |= (USART_50MHZ_9600_MANT << SHIFT_4);  // Mantissa 
 101              		.loc 1 64 5 is_stmt 1 view .LVU27
 102              		.loc 1 64 17 is_stmt 0 view .LVU28
 103 006e 9A68     		ldr	r2, [r3, #8]
 104 0070 42F4A252 		orr	r2, r2, #5184
 105 0074 42F01002 		orr	r2, r2, #16
 106 0078 9A60     		str	r2, [r3, #8]
  65:../STM32F4-driver-library/sources/uart_comm.c **** 
  66:../STM32F4-driver-library/sources/uart_comm.c ****     // Enable the TX/RX by setting the TE and RE bits in USART_CR1 register 
ARM GAS  C:\Users\samue\AppData\Local\Temp\ccNHADWW.s 			page 4


  67:../STM32F4-driver-library/sources/uart_comm.c ****     USART2->CR1 |= (SET_BIT << SHIFT_2);  // Set RE
 107              		.loc 1 67 5 is_stmt 1 view .LVU29
 108              		.loc 1 67 17 is_stmt 0 view .LVU30
 109 007a DA68     		ldr	r2, [r3, #12]
 110 007c 42F00402 		orr	r2, r2, #4
 111 0080 DA60     		str	r2, [r3, #12]
  68:../STM32F4-driver-library/sources/uart_comm.c ****     USART2->CR1 |= (SET_BIT << SHIFT_3);  // Set TE
 112              		.loc 1 68 5 is_stmt 1 view .LVU31
 113              		.loc 1 68 17 is_stmt 0 view .LVU32
 114 0082 DA68     		ldr	r2, [r3, #12]
 115 0084 42F00802 		orr	r2, r2, #8
 116 0088 DA60     		str	r2, [r3, #12]
  69:../STM32F4-driver-library/sources/uart_comm.c **** }
 117              		.loc 1 69 1 view .LVU33
 118 008a 7047     		bx	lr
 119              	.L3:
 120              		.align	2
 121              	.L2:
 122 008c 00380240 		.word	1073887232
 123              		.cfi_endproc
 124              	.LFE130:
 126              		.section	.text.uart2_sendchar,"ax",%progbits
 127              		.align	1
 128              		.global	uart2_sendchar
 129              		.syntax unified
 130              		.thumb
 131              		.thumb_func
 133              	uart2_sendchar:
 134              	.LVL0:
 135              	.LFB131:
  70:../STM32F4-driver-library/sources/uart_comm.c **** 
  71:../STM32F4-driver-library/sources/uart_comm.c **** 
  72:../STM32F4-driver-library/sources/uart_comm.c **** // 
  73:../STM32F4-driver-library/sources/uart_comm.c **** void uart2_sendchar(uint8_t c)
  74:../STM32F4-driver-library/sources/uart_comm.c **** {
 136              		.loc 1 74 1 is_stmt 1 view -0
 137              		.cfi_startproc
 138              		@ args = 0, pretend = 0, frame = 0
 139              		@ frame_needed = 0, uses_anonymous_args = 0
 140              		@ link register save eliminated.
  75:../STM32F4-driver-library/sources/uart_comm.c ****     // 
  76:../STM32F4-driver-library/sources/uart_comm.c ****     USART2->DR = c;  // write the data 
 141              		.loc 1 76 5 view .LVU35
 142              		.loc 1 76 16 is_stmt 0 view .LVU36
 143 0000 034B     		ldr	r3, .L6
 144 0002 5860     		str	r0, [r3, #4]
  77:../STM32F4-driver-library/sources/uart_comm.c ****     while (!(USART2->SR & (SET_BIT << SHIFT_6)));  // Wait for TC to be 1 
 145              		.loc 1 77 5 is_stmt 1 view .LVU37
 146              	.L5:
 147              		.loc 1 77 49 discriminator 1 view .LVU38
 148              		.loc 1 77 11 discriminator 1 view .LVU39
 149              		.loc 1 77 20 is_stmt 0 discriminator 1 view .LVU40
 150 0004 024B     		ldr	r3, .L6
 151 0006 1B68     		ldr	r3, [r3]
 152              		.loc 1 77 11 discriminator 1 view .LVU41
 153 0008 13F0400F 		tst	r3, #64
 154 000c FAD0     		beq	.L5
ARM GAS  C:\Users\samue\AppData\Local\Temp\ccNHADWW.s 			page 5


  78:../STM32F4-driver-library/sources/uart_comm.c **** }
 155              		.loc 1 78 1 view .LVU42
 156 000e 7047     		bx	lr
 157              	.L7:
 158              		.align	2
 159              	.L6:
 160 0010 00440040 		.word	1073759232
 161              		.cfi_endproc
 162              	.LFE131:
 164              		.section	.text.uart2_tx,"ax",%progbits
 165              		.align	1
 166              		.global	uart2_tx
 167              		.syntax unified
 168              		.thumb
 169              		.thumb_func
 171              	uart2_tx:
 172              	.LFB132:
  79:../STM32F4-driver-library/sources/uart_comm.c **** 
  80:../STM32F4-driver-library/sources/uart_comm.c **** 
  81:../STM32F4-driver-library/sources/uart_comm.c **** // UART2 Transmit 
  82:../STM32F4-driver-library/sources/uart_comm.c **** void uart2_tx(void)
  83:../STM32F4-driver-library/sources/uart_comm.c **** {
 173              		.loc 1 83 1 is_stmt 1 view -0
 174              		.cfi_startproc
 175              		@ args = 0, pretend = 0, frame = 0
 176              		@ frame_needed = 0, uses_anonymous_args = 0
 177              		@ link register save eliminated.
  84:../STM32F4-driver-library/sources/uart_comm.c ****     // 
  85:../STM32F4-driver-library/sources/uart_comm.c **** }
 178              		.loc 1 85 1 view .LVU44
 179 0000 7047     		bx	lr
 180              		.cfi_endproc
 181              	.LFE132:
 183              		.section	.text.uart2_rx,"ax",%progbits
 184              		.align	1
 185              		.global	uart2_rx
 186              		.syntax unified
 187              		.thumb
 188              		.thumb_func
 190              	uart2_rx:
 191              	.LFB133:
  86:../STM32F4-driver-library/sources/uart_comm.c **** 
  87:../STM32F4-driver-library/sources/uart_comm.c **** 
  88:../STM32F4-driver-library/sources/uart_comm.c **** // UART2 Receive
  89:../STM32F4-driver-library/sources/uart_comm.c **** void uart2_rx(void)
  90:../STM32F4-driver-library/sources/uart_comm.c **** {
 192              		.loc 1 90 1 view -0
 193              		.cfi_startproc
 194              		@ args = 0, pretend = 0, frame = 0
 195              		@ frame_needed = 0, uses_anonymous_args = 0
 196              		@ link register save eliminated.
  91:../STM32F4-driver-library/sources/uart_comm.c ****     // 
  92:../STM32F4-driver-library/sources/uart_comm.c **** }
 197              		.loc 1 92 1 view .LVU46
 198 0000 7047     		bx	lr
 199              		.cfi_endproc
 200              	.LFE133:
ARM GAS  C:\Users\samue\AppData\Local\Temp\ccNHADWW.s 			page 6


 202              		.text
 203              	.Letext0:
 204              		.file 2 "c:\\dev_tools\\gcc-arm-none-eabi-10.3-2021.10-win32\\gcc-arm-none-eabi-10.3-2021.10\\arm-
 205              		.file 3 "c:\\dev_tools\\gcc-arm-none-eabi-10.3-2021.10-win32\\gcc-arm-none-eabi-10.3-2021.10\\arm-
 206              		.file 4 "Drivers/CMSIS/Device/ST/STM32F4xx/Include/stm32f411xe.h"
 207              		.file 5 "../STM32F4-driver-library/headers/tools.h"
ARM GAS  C:\Users\samue\AppData\Local\Temp\ccNHADWW.s 			page 7

