ARM GAS  C:\Users\samue\AppData\Local\Temp\cckwozTj.s 			page 1


   1              		.cpu cortex-m4
   2              		.arch armv7e-m
   3              		.fpu fpv4-sp-d16
   4              		.eabi_attribute 27, 1
   5              		.eabi_attribute 28, 1
   6              		.eabi_attribute 20, 1
   7              		.eabi_attribute 21, 1
   8              		.eabi_attribute 23, 3
   9              		.eabi_attribute 24, 1
  10              		.eabi_attribute 25, 1
  11              		.eabi_attribute 26, 1
  12              		.eabi_attribute 30, 1
  13              		.eabi_attribute 34, 1
  14              		.eabi_attribute 18, 4
  15              		.file	"user_app.c"
  16              		.text
  17              	.Ltext0:
  18              		.cfi_sections	.debug_frame
  19              		.section	.text.user_app,"ax",%progbits
  20              		.align	1
  21              		.global	user_app
  22              		.syntax unified
  23              		.thumb
  24              		.thumb_func
  26              	user_app:
  27              	.LFB130:
  28              		.file 1 "sources/user_app.c"
   1:sources/user_app.c **** /**
   2:sources/user_app.c ****  * @file user_app.c
   3:sources/user_app.c ****  * 
   4:sources/user_app.c ****  * @author Sam Donnelly (samueldonnelly11@gmail.com)
   5:sources/user_app.c ****  * 
   6:sources/user_app.c ****  * @brief 
   7:sources/user_app.c ****  * 
   8:sources/user_app.c ****  * @version 0.1
   9:sources/user_app.c ****  * @date 2022-02-12
  10:sources/user_app.c ****  * 
  11:sources/user_app.c ****  * @copyright Copyright (c) 2022
  12:sources/user_app.c ****  * 
  13:sources/user_app.c ****  */
  14:sources/user_app.c **** 
  15:sources/user_app.c **** //=======================================================================================
  16:sources/user_app.c **** // Includes 
  17:sources/user_app.c **** 
  18:sources/user_app.c **** #include "user_app.h"
  19:sources/user_app.c **** 
  20:sources/user_app.c **** //=======================================================================================
  21:sources/user_app.c **** 
  22:sources/user_app.c **** 
  23:sources/user_app.c **** // User application 
  24:sources/user_app.c **** void user_app()
  25:sources/user_app.c **** {
  29              		.loc 1 25 1 view -0
  30              		.cfi_startproc
  31              		@ args = 0, pretend = 0, frame = 0
  32              		@ frame_needed = 0, uses_anonymous_args = 0
  26:sources/user_app.c ****     // This code is continuously looped
ARM GAS  C:\Users\samue\AppData\Local\Temp\cckwozTj.s 			page 2


  27:sources/user_app.c **** 
  28:sources/user_app.c ****     // Local variables 
  29:sources/user_app.c ****     static test_mode_t test_mode = GET_STR;
  33              		.loc 1 29 5 view .LVU1
  30:sources/user_app.c ****     static uint8_t input = 0;
  34              		.loc 1 30 5 view .LVU2
  31:sources/user_app.c ****     // static char string_read[STR_READ_LEN] = {'\0'};
  32:sources/user_app.c ****     static char string_read[STR_READ_LEN];
  35              		.loc 1 32 5 view .LVU3
  33:sources/user_app.c **** 
  34:sources/user_app.c ****     // Choose which test to run based on test_mode
  35:sources/user_app.c ****     switch (test_mode)
  36              		.loc 1 35 5 view .LVU4
  36:sources/user_app.c ****     {
  37:sources/user_app.c ****         // Send character 
  38:sources/user_app.c ****         case SEND_CHAR:
  39:sources/user_app.c ****             uart2_sendchar('G');
  40:sources/user_app.c ****             HAL_Delay(1000);
  41:sources/user_app.c ****             break;
  42:sources/user_app.c ****         
  43:sources/user_app.c ****         // Send string 
  44:sources/user_app.c ****         case SEND_STRING:
  45:sources/user_app.c ****             uart2_sendstring("hello world!\r\n");
  46:sources/user_app.c ****             HAL_Delay(1000);
  47:sources/user_app.c ****             break;
  48:sources/user_app.c ****         
  49:sources/user_app.c ****         // Read character from seriala and resend 
  50:sources/user_app.c ****         case GET_CHAR:
  51:sources/user_app.c ****             // Check if data is waiting to be read
  52:sources/user_app.c ****             if (USART2->SR & (SET_BIT << SHIFT_5))
  53:sources/user_app.c ****             {
  54:sources/user_app.c ****                 input = uart2_getchar();
  55:sources/user_app.c ****                 uart2_sendchar(input);
  56:sources/user_app.c ****                 uart2_sendchar(*("\r"));
  57:sources/user_app.c ****                 uart2_sendchar(*("\n"));
  58:sources/user_app.c ****             }
  59:sources/user_app.c **** 
  60:sources/user_app.c ****             break;
  61:sources/user_app.c ****         
  62:sources/user_app.c ****         // Read string from serial and resend 
  63:sources/user_app.c ****         case GET_STR:
  64:sources/user_app.c ****             // Check if data is waiting to be read
  65:sources/user_app.c ****             if (USART2->SR & (SET_BIT << SHIFT_5))
  37              		.loc 1 65 13 view .LVU5
  38              		.loc 1 65 23 is_stmt 0 view .LVU6
  39 0000 0D4B     		ldr	r3, .L10
  40 0002 1B68     		ldr	r3, [r3]
  41              		.loc 1 65 16 view .LVU7
  42 0004 13F0200F 		tst	r3, #32
  43 0008 00D1     		bne	.L9
  44 000a 7047     		bx	lr
  45              	.L9:
  25:sources/user_app.c ****     // This code is continuously looped
  46              		.loc 1 25 1 view .LVU8
  47 000c 10B5     		push	{r4, lr}
  48              	.LCFI0:
  49              		.cfi_def_cfa_offset 8
ARM GAS  C:\Users\samue\AppData\Local\Temp\cckwozTj.s 			page 3


  50              		.cfi_offset 4, -8
  51              		.cfi_offset 14, -4
  66:sources/user_app.c ****             {
  67:sources/user_app.c ****                 // Pass a pointer to cleared string to uart2_getstr()
  68:sources/user_app.c ****                 uart2_getstr(string_read);
  52              		.loc 1 68 17 is_stmt 1 view .LVU9
  53 000e 0B4C     		ldr	r4, .L10+4
  54 0010 2046     		mov	r0, r4
  55 0012 FFF7FEFF 		bl	uart2_getstr
  56              	.LVL0:
  69:sources/user_app.c **** 
  70:sources/user_app.c ****                 input = *string_read;
  57              		.loc 1 70 17 view .LVU10
  58              		.loc 1 70 25 is_stmt 0 view .LVU11
  59 0016 2278     		ldrb	r2, [r4]	@ zero_extendqisi2
  60              		.loc 1 70 23 view .LVU12
  61 0018 094B     		ldr	r3, .L10+8
  62 001a 1A70     		strb	r2, [r3]
  71:sources/user_app.c **** 
  72:sources/user_app.c ****                 // Relay read string back over serial to verify contents 
  73:sources/user_app.c ****                 uart2_sendstring(string_read);
  63              		.loc 1 73 17 is_stmt 1 view .LVU13
  64 001c 2046     		mov	r0, r4
  65 001e FFF7FEFF 		bl	uart2_sendstring
  66              	.LVL1:
  74:sources/user_app.c **** 
  75:sources/user_app.c ****                 // Clear previous contents of string
  76:sources/user_app.c ****                 for (uint8_t i = 0; i < STR_READ_LEN; i++)
  67              		.loc 1 76 17 view .LVU14
  68              	.LBB2:
  69              		.loc 1 76 22 view .LVU15
  70              		.loc 1 76 30 is_stmt 0 view .LVU16
  71 0022 0023     		movs	r3, #0
  72              		.loc 1 76 17 view .LVU17
  73 0024 04E0     		b	.L3
  74              	.LVL2:
  75              	.L4:
  77:sources/user_app.c ****                 {
  78:sources/user_app.c ****                     string_read[i] = '\0';
  76              		.loc 1 78 21 is_stmt 1 discriminator 3 view .LVU18
  77              		.loc 1 78 36 is_stmt 0 discriminator 3 view .LVU19
  78 0026 054A     		ldr	r2, .L10+4
  79 0028 0021     		movs	r1, #0
  80 002a D154     		strb	r1, [r2, r3]
  76:sources/user_app.c ****                 {
  81              		.loc 1 76 55 is_stmt 1 discriminator 3 view .LVU20
  76:sources/user_app.c ****                 {
  82              		.loc 1 76 56 is_stmt 0 discriminator 3 view .LVU21
  83 002c 0133     		adds	r3, r3, #1
  84              	.LVL3:
  76:sources/user_app.c ****                 {
  85              		.loc 1 76 56 discriminator 3 view .LVU22
  86 002e DBB2     		uxtb	r3, r3
  87              	.LVL4:
  88              	.L3:
  76:sources/user_app.c ****                 {
  89              		.loc 1 76 37 is_stmt 1 discriminator 1 view .LVU23
ARM GAS  C:\Users\samue\AppData\Local\Temp\cckwozTj.s 			page 4


  76:sources/user_app.c ****                 {
  90              		.loc 1 76 17 is_stmt 0 discriminator 1 view .LVU24
  91 0030 132B     		cmp	r3, #19
  92 0032 F8D9     		bls	.L4
  93              	.LBE2:
  79:sources/user_app.c ****                 }
  80:sources/user_app.c ****             }
  81:sources/user_app.c **** 
  82:sources/user_app.c ****             break;
  83:sources/user_app.c ****         
  84:sources/user_app.c ****         // Do nothing 
  85:sources/user_app.c ****         default:
  86:sources/user_app.c ****             break;
  87:sources/user_app.c ****     }
  88:sources/user_app.c **** }
  94              		.loc 1 88 1 view .LVU25
  95 0034 10BD     		pop	{r4, pc}
  96              	.L11:
  97 0036 00BF     		.align	2
  98              	.L10:
  99 0038 00440040 		.word	1073759232
 100 003c 00000000 		.word	.LANCHOR0
 101 0040 00000000 		.word	.LANCHOR1
 102              		.cfi_endproc
 103              	.LFE130:
 105              		.section	.bss.input.1,"aw",%nobits
 106              		.set	.LANCHOR1,. + 0
 109              	input.1:
 110 0000 00       		.space	1
 111              		.section	.bss.string_read.0,"aw",%nobits
 112              		.align	2
 113              		.set	.LANCHOR0,. + 0
 116              	string_read.0:
 117 0000 00000000 		.space	20
 117      00000000 
 117      00000000 
 117      00000000 
 117      00000000 
 118              		.text
 119              	.Letext0:
 120              		.file 2 "c:\\dev_tools\\gcc-arm-none-eabi-10.3-2021.10-win32\\gcc-arm-none-eabi-10.3-2021.10\\arm-
 121              		.file 3 "c:\\dev_tools\\gcc-arm-none-eabi-10.3-2021.10-win32\\gcc-arm-none-eabi-10.3-2021.10\\arm-
 122              		.file 4 "Drivers/CMSIS/Device/ST/STM32F4xx/Include/stm32f411xe.h"
 123              		.file 5 "../STM32F4-driver-library/headers/tools.h"
 124              		.file 6 "headers/user_app.h"
 125              		.file 7 "../STM32F4-driver-library/headers/uart_comm.h"
ARM GAS  C:\Users\samue\AppData\Local\Temp\cckwozTj.s 			page 5


DEFINED SYMBOLS
                            *ABS*:00000000 user_app.c
C:\Users\samue\AppData\Local\Temp\cckwozTj.s:20     .text.user_app:00000000 $t
C:\Users\samue\AppData\Local\Temp\cckwozTj.s:26     .text.user_app:00000000 user_app
C:\Users\samue\AppData\Local\Temp\cckwozTj.s:99     .text.user_app:00000038 $d
C:\Users\samue\AppData\Local\Temp\cckwozTj.s:109    .bss.input.1:00000000 input.1
C:\Users\samue\AppData\Local\Temp\cckwozTj.s:110    .bss.input.1:00000000 $d
C:\Users\samue\AppData\Local\Temp\cckwozTj.s:112    .bss.string_read.0:00000000 $d
C:\Users\samue\AppData\Local\Temp\cckwozTj.s:116    .bss.string_read.0:00000000 string_read.0

UNDEFINED SYMBOLS
uart2_getstr
uart2_sendstring
